Certificate:
    Data:
        Version: 1 (0x0)
        Serial Number: 64210 (0xfad2)
        Signature Algorithm: md5WithRSAEncryption
        Issuer: C=US, ST=Ohio, O=NHIN Direct CA, CN=ca.nhindirect.org
        Validity
            Not Before: May 10 18:34:51 2010 GMT
            Not After : May  7 18:34:51 2020 GMT
        Subject: C=US, ST=Ohio, O=Example2, CN=nhin.example2.org
        Subject Public Key Info:
            Public Key Algorithm: rsaEncryption
            RSA Public Key: (1024 bit)
                Modulus (1024 bit):
                    00:e9:11:34:94:27:a7:5e:9a:a4:fa:d7:6c:f4:c4:
                    5b:65:33:c6:9c:b8:99:10:0d:69:c7:2c:50:2e:6b:
                    9b:a2:b1:b0:31:46:f7:9f:7c:5c:f5:f4:3c:ff:f0:
                    b9:bb:61:04:3e:90:e4:fa:30:a9:4d:f2:55:df:9a:
                    a3:21:85:bc:21:a5:c1:a9:3b:80:72:5f:e6:1a:09:
                    1b:d9:d6:cc:fc:72:1a:08:e0:80:55:3d:12:63:4e:
                    70:45:99:68:f9:3a:14:fd:89:89:2c:fe:c3:a8:6e:
                    d9:48:90:81:90:4d:a1:b8:9f:b6:7b:4d:71:a3:d9:
                    7d:9c:09:f0:b2:4f:2c:1b:7d
                Exponent: 65537 (0x10001)
    Signature Algorithm: md5WithRSAEncryption
        15:05:52:76:83:b0:02:f7:56:fb:9f:c7:37:ab:6b:c8:06:9a:
        9e:77:95:a5:b5:e2:24:d6:52:47:06:47:31:75:80:60:dc:c8:
        aa:4c:9d:ba:51:9c:74:08:67:93:ae:76:c3:3c:60:7f:dc:b6:
        16:68:cd:b3:b9:ee:c7:6f:2f:df
-----BEGIN CERTIFICATE-----
MIIBzDCCAXYCAwD60jANBgkqhkiG9w0BAQQFADBRMQswCQYDVQQGEwJVUzENMAsG
A1UECBMET2hpbzEXMBUGA1UEChMOTkhJTiBEaXJlY3QgQ0ExGjAYBgNVBAMTEWNh
Lm5oaW5kaXJlY3Qub3JnMB4XDTEwMDUxMDE4MzQ1MVoXDTIwMDUwNzE4MzQ1MVow
SzELMAkGA1UEBhMCVVMxDTALBgNVBAgTBE9oaW8xETAPBgNVBAoTCEV4YW1wbGUy
MRowGAYDVQQDExFuaGluLmV4YW1wbGUyLm9yZzCBnzANBgkqhkiG9w0BAQEFAAOB
jQAwgYkCgYEA6RE0lCenXpqk+tds9MRbZTPGnLiZEA1pxyxQLmuborGwMUb3n3xc
9fQ8//C5u2EEPpDk+jCpTfJV35qjIYW8IaXBqTuAcl/mGgkb2dbM/HIaCOCAVT0S
Y05wRZlo+ToU/YmJLP7DqG7ZSJCBkE2huJ+2e01xo9l9nAnwsk8sG30CAwEAATAN
BgkqhkiG9w0BAQQFAANBABUFUnaDsAL3Vvufxzera8gGmp53laW14iTWUkcGRzF1
gGDcyKpMnbpRnHQIZ5OudsM8YH/cthZozbO57sdvL98=
-----END CERTIFICATE-----
